target datalayout = "e-m:e-p270:32:32-p271:32:32-p272:64:64-i64:64-i128:128-f80:128-n8:16:32:64-S128"
target triple = "x86_64-pc-linux-gnu"

%struct.Vec_Int_t_ = type { i32, i32, ptr }
%struct.Abc_Ntk_t_ = type { i32, i32, ptr, ptr, ptr, ptr, ptr, ptr, ptr, ptr, ptr, ptr, ptr, [11 x i32], i32, i32, i32, i32, ptr, i32, ptr, ptr, i32, i32, i32, double, i32, %struct.Vec_Int_t_, ptr, ptr, ptr, ptr, ptr, float, i32, ptr, ptr, ptr, ptr, ptr, ptr, ptr, ptr, ptr, ptr, ptr, ptr, ptr, ptr, ptr, ptr, ptr, ptr, ptr, ptr, ptr, ptr }

@.str.19 = private unnamed_addr constant [51 x i8] c"Abc_NtkCollapseSat: The network check has failed.\0A\00", align 1

; Function Attrs: nounwind uwtable
define ptr @Abc_NtkCollapseSat(ptr noundef %0, i32 noundef %1, i32 noundef %2, i32 noundef %3, i32 noundef %4, i32 noundef %5, i32 noundef %6, i32 noundef %7) #0 {
  %9 = alloca ptr, align 8
  %10 = alloca ptr, align 8
  %11 = alloca i32, align 4
  %12 = alloca i32, align 4
  %13 = alloca i32, align 4
  %14 = alloca i32, align 4
  %15 = alloca i32, align 4
  %16 = alloca i32, align 4
  %17 = alloca i32, align 4
  %18 = alloca ptr, align 8
  %19 = alloca i32, align 4
  store ptr %0, ptr %10, align 8, !tbaa !52
  store i32 %1, ptr %11, align 4, !tbaa !11
  store i32 %2, ptr %12, align 4, !tbaa !11
  store i32 %3, ptr %13, align 4, !tbaa !11
  store i32 %4, ptr %14, align 4, !tbaa !11
  store i32 %5, ptr %15, align 4, !tbaa !11
  store i32 %6, ptr %16, align 4, !tbaa !11
  store i32 %7, ptr %17, align 4, !tbaa !11
  call void @llvm.lifetime.start.p0(i64 8, ptr %18) #11
  %20 = load ptr, ptr %10, align 8, !tbaa !52
  %21 = load i32, ptr %11, align 4, !tbaa !11
  %22 = load i32, ptr %12, align 4, !tbaa !11
  %23 = load i32, ptr %13, align 4, !tbaa !11
  %24 = load i32, ptr %14, align 4, !tbaa !11
  %25 = load i32, ptr %15, align 4, !tbaa !11
  %26 = load i32, ptr %16, align 4, !tbaa !11
  %27 = load i32, ptr %17, align 4, !tbaa !11
  %28 = call ptr @Abc_NtkFromSopsInt(ptr noundef %20, i32 noundef %21, i32 noundef %22, i32 noundef %23, i32 noundef %24, i32 noundef %25, i32 noundef %26, i32 noundef %27)
  store ptr %28, ptr %18, align 8, !tbaa !52
  %29 = load ptr, ptr %18, align 8, !tbaa !52
  %30 = icmp eq ptr %29, null
  br i1 %30, label %31, label %32

31:                                               ; preds = %8
  store ptr null, ptr %9, align 8
  store i32 1, ptr %19, align 4
  br label %53

32:                                               ; preds = %8
  %33 = load ptr, ptr %10, align 8, !tbaa !52
  %34 = getelementptr inbounds nuw %struct.Abc_Ntk_t_, ptr %33, i32 0, i32 40
  %35 = load ptr, ptr %34, align 8, !tbaa !76
  %36 = icmp ne ptr %35, null
  br i1 %36, label %37, label %44

37:                                               ; preds = %32
  %38 = load ptr, ptr %10, align 8, !tbaa !52
  %39 = getelementptr inbounds nuw %struct.Abc_Ntk_t_, ptr %38, i32 0, i32 40
  %40 = load ptr, ptr %39, align 8, !tbaa !76
  %41 = call ptr @Abc_NtkDup(ptr noundef %40)
  %42 = load ptr, ptr %18, align 8, !tbaa !52
  %43 = getelementptr inbounds nuw %struct.Abc_Ntk_t_, ptr %42, i32 0, i32 40
  store ptr %41, ptr %43, align 8, !tbaa !76
  br label %44

44:                                               ; preds = %37, %32
  %45 = load ptr, ptr %18, align 8, !tbaa !52
  %46 = call i32 @Abc_NtkCheck(ptr noundef %45)
  %47 = icmp ne i32 %46, 0
  br i1 %47, label %51, label %48

48:                                               ; preds = %44
  %49 = call i32 (ptr, ...) @printf(ptr noundef @.str.19)
  %50 = load ptr, ptr %18, align 8, !tbaa !52
  call void @Abc_NtkDelete(ptr noundef %50)
  store ptr null, ptr %9, align 8
  store i32 1, ptr %19, align 4
  br label %53

51:                                               ; preds = %44
  %52 = load ptr, ptr %18, align 8, !tbaa !52
  store ptr %52, ptr %9, align 8
  store i32 1, ptr %19, align 4
  br label %53

53:                                               ; preds = %51, %48, %31
  call void @llvm.lifetime.end.p0(i64 8, ptr %18) #11
  %54 = load ptr, ptr %9, align 8
  ret ptr %54
}