; Function Attrs: nounwind uwtable
define noundef ptr @Abc_NtkCollapseSat(ptr noundef %0, i32 noundef %1, i32 noundef %2, i32 noundef %3, i32 noundef %4, i32 noundef %5, i32 noundef %6, i32 noundef %7) local_unnamed_addr #0 {
  %9 = tail call ptr @Abc_NtkFromSopsInt(ptr noundef %0, i32 noundef %1, i32 noundef %2, i32 noundef %3, i32 noundef %4, i32 noundef %5, i32 noundef %6, i32 noundef %7)
  %10 = icmp eq ptr %9, null
  br i1 %10, label %20, label %11

11:                                               ; preds = %8
  %12 = getelementptr inbounds nuw i8, ptr %0, i64 328
  %13 = load ptr, ptr %12, align 8, !tbaa !70
  %.not = icmp eq ptr %13, null
  br i1 %.not, label %17, label %14

14:                                               ; preds = %11
  %15 = tail call ptr @Abc_NtkDup(ptr noundef nonnull %13) #18
  %16 = getelementptr inbounds nuw i8, ptr %9, i64 328
  store ptr %15, ptr %16, align 8, !tbaa !70
  br label %17

17:                                               ; preds = %14, %11
  %18 = tail call i32 @Abc_NtkCheck(ptr noundef nonnull %9) #18
  %.not17 = icmp eq i32 %18, 0
  br i1 %.not17, label %19, label %20

19:                                               ; preds = %17
  %puts = tail call i32 @puts(ptr nonnull dereferenceable(1) @str.1)
  tail call void @Abc_NtkDelete(ptr noundef nonnull %9) #18
  br label %20

20:                                               ; preds = %17, %8, %19
  %.0 = phi ptr [ null, %19 ], [ null, %8 ], [ %9, %17 ]
  ret ptr %.0
}